; Function Attrs: mustprogress uwtable
define hidden void @_ZN6Assimp3FBX12MeshGeometry21ReadVertexDataNormalsERSt6vectorI10aiVector3tIfESaIS4_EERKNS0_5ScopeERKNSt7__cxx1112basic_stringIcSt11char_traitsIcESaIcEEESI_(ptr noundef nonnull align 8 dereferenceable(1000) %this, ptr noundef nonnull align 8 dereferenceable(24) %normals_out, ptr noundef nonnull align 8 dereferenceable(48) %source, ptr noundef nonnull align 8 dereferenceable(32) %MappingInformationType, ptr noundef nonnull align 8 dereferenceable(32) %ReferenceInformationType) local_unnamed_addr #0 align 2 {
entry:
  %m_vertices = getelementptr inbounds i8, ptr %this, i64 144
  %_M_finish.i = getelementptr inbounds i8, ptr %this, i64 152
  %0 = load ptr, ptr %_M_finish.i, align 8
  %1 = load ptr, ptr %m_vertices, align 8
  %sub.ptr.lhs.cast.i = ptrtoint ptr %0 to i64
  %sub.ptr.rhs.cast.i = ptrtoint ptr %1 to i64
  %sub.ptr.sub.i = sub i64 %sub.ptr.lhs.cast.i, %sub.ptr.rhs.cast.i
  %sub.ptr.div.i = sdiv exact i64 %sub.ptr.sub.i, 12
  %m_mapping_counts = getelementptr inbounds i8, ptr %this, i64 928
  %m_mapping_offsets = getelementptr inbounds i8, ptr %this, i64 952
  %m_mappings = getelementptr inbounds i8, ptr %this, i64 976
  tail call void @_ZN6Assimp3FBX22ResolveVertexDataArrayI10aiVector3tIfEEEvRSt6vectorIT_SaIS5_EERKNS0_5ScopeERKNSt7__cxx1112basic_stringIcSt11char_traitsIcESaIcEEESJ_PKcSL_mRKS4_IjSaIjEESP_SP_(ptr noundef nonnull align 8 dereferenceable(24) %normals_out, ptr noundef nonnull align 8 dereferenceable(48) %source, ptr noundef nonnull align 8 dereferenceable(32) %MappingInformationType, ptr noundef nonnull align 8 dereferenceable(32) %ReferenceInformationType, ptr noundef nonnull @.str.36, ptr noundef nonnull @.str.37, i64 noundef %sub.ptr.div.i, ptr noundef nonnull align 8 dereferenceable(24) %m_mapping_counts, ptr noundef nonnull align 8 dereferenceable(24) %m_mapping_offsets, ptr noundef nonnull align 8 dereferenceable(24) %m_mappings)
  ret void
}